(dp0
(S'VP'
p1
S'VP'
p2
tp3
F0.0234375
s(S'ADJP'
p4
S'PP'
p5
tp6
F0.46153846153846156
s(S'ADJP'
p7
S'VP'
p8
tp9
F0.2692307692307692
s(S'NP'
p10
S'NP'
p11
tp12
F0.22878228782287824
s(g11
S'PP'
p13
tp14
F0.26199261992619927
s(S'ADVP'
p15
S'NP'
p16
tp17
F0.56
s(g13
S'NP'
p18
tp19
F0.831858407079646
s(S'PP'
p20
S'VP'
p21
tp22
F0.08849557522123894
s(S'VP'
p23
S'ADVP'
p24
tp25
F0.046875
s(S'VP'
p26
g20
tp27
F0.171875
s(S'VP'
p28
S'NP'
p29
tp30
F0.7265625
s(g29
S'ADJP'
p31
tp32
F0.06273062730627306
s(S'NP'
p33
S'ADVP'
p34
tp35
F0.06273062730627306
s(S'PP'
p36
S'ADJP'
p37
tp38
F0.035398230088495575
s(S'VP'
p39
S'ADJP'
p40
tp41
F0.03125
s(S'ADVP'
p42
S'ADJP'
p43
tp44
F0.04
s(S'NP'
p45
g28
tp46
F0.3837638376383764
s(S'ADJP'
p47
S'ADVP'
p48
tp49
F0.0001
s(g31
S'NP'
p50
tp51
F0.2692307692307692
s(g34
S'VP'
p52
tp53
F0.16
s(S'PP'
p54
S'ADVP'
p55
tp56
F0.02654867256637168
s(S'ADVP'
p57
S'ADVP'
p58
tp59
F0.0001
s(S'ADJP'
p60
S'ADJP'
p61
tp62
F0.0001
s(g24
g36
tp63
F0.24
s(S'PP'
p64
S'PP'
p65
tp66
F0.017699115044247787
s.